target datalayout = "e-m:e-p270:32:32-p271:32:32-p272:64:64-i64:64-i128:128-f80:128-n8:16:32:64-S128"
target triple = "x86_64-pc-linux-gnu"

%"class.cv::utils::trace::details::Region" = type <{ ptr, i32, [4 x i8] }>
%"class.std::__cxx11::basic_string" = type { %"struct.std::__cxx11::basic_string<char>::_Alloc_hider", i64, %union.anon }
%"struct.std::__cxx11::basic_string<char>::_Alloc_hider" = type { ptr }
%union.anon = type { i64, [8 x i8] }

@__func__._ZN2cv3hal12cpu_baseline19cvtOnePlaneBGRtoYUVEPKhmPhmiiibii = private unnamed_addr constant [20 x i8] c"cvtOnePlaneBGRtoYUV\00", align 1
@.str.11 = private unnamed_addr constant [134 x i8] c"generated/home/dtcxzyw/WorkSpace/Projects/compilers/llvm-opt-benchmark/bench/opencv/opencv/modules/imgproc/src/color_yuv.dispatch.cpp\00", align 1
@.str.29 = private unnamed_addr constant [91 x i8] c"HAL implementation cvtOnePlaneBGRtoYUV ==> hal_ni_cvtOnePlaneBGRtoYUV returned %d (0x%08x)\00", align 1

; Function Attrs: mustprogress nounwind uwtable
define linkonce_odr hidden noundef i32 @_Z26hal_ni_cvtOnePlaneBGRtoYUVPKhmPhmiiibii(ptr noundef %0, i64 noundef %1, ptr noundef %2, i64 noundef %3, i32 noundef %4, i32 noundef %5, i32 noundef %6, i1 noundef zeroext %7, i32 noundef %8, i32 noundef %9) #2 comdat {
  %11 = alloca ptr, align 8
  %12 = alloca i64, align 8
  %13 = alloca ptr, align 8
  %14 = alloca i64, align 8
  %15 = alloca i32, align 4
  %16 = alloca i32, align 4
  %17 = alloca i32, align 4
  %18 = alloca i8, align 1
  %19 = alloca i32, align 4
  %20 = alloca i32, align 4
  store ptr %0, ptr %11, align 8
  store i64 %1, ptr %12, align 8
  store ptr %2, ptr %13, align 8
  store i64 %3, ptr %14, align 8
  store i32 %4, ptr %15, align 4
  store i32 %5, ptr %16, align 4
  store i32 %6, ptr %17, align 4
  %21 = zext i1 %7 to i8
  store i8 %21, ptr %18, align 1
  store i32 %8, ptr %19, align 4
  store i32 %9, ptr %20, align 4
  ret i32 1
}

; Function Attrs: mustprogress uwtable
define void @_ZN2cv3hal19cvtOnePlaneBGRtoYUVEPKhmPhmiiibii(ptr noundef %0, i64 noundef %1, ptr noundef %2, i64 noundef %3, i32 noundef %4, i32 noundef %5, i32 noundef %6, i1 noundef zeroext %7, i32 noundef %8, i32 noundef %9) #0 personality ptr @__gxx_personality_v0 {
  %11 = alloca ptr, align 8
  %12 = alloca i64, align 8
  %13 = alloca ptr, align 8
  %14 = alloca i64, align 8
  %15 = alloca i32, align 4
  %16 = alloca i32, align 4
  %17 = alloca i32, align 4
  %18 = alloca i8, align 1
  %19 = alloca i32, align 4
  %20 = alloca i32, align 4
  %21 = alloca %"class.cv::utils::trace::details::Region", align 8
  %22 = alloca i32, align 4
  %23 = alloca ptr, align 8
  %24 = alloca i32, align 4
  %25 = alloca i32, align 4
  %26 = alloca %"class.std::__cxx11::basic_string", align 8
  store ptr %0, ptr %11, align 8
  store i64 %1, ptr %12, align 8
  store ptr %2, ptr %13, align 8
  store i64 %3, ptr %14, align 8
  store i32 %4, ptr %15, align 4
  store i32 %5, ptr %16, align 4
  store i32 %6, ptr %17, align 4
  %27 = zext i1 %7 to i8
  store i8 %27, ptr %18, align 1
  store i32 %8, ptr %19, align 4
  store i32 %9, ptr %20, align 4
  call void @_ZN2cv5utils5trace7details6RegionC1ERKNS3_21LocationStaticStorageE(ptr noundef nonnull align 8 dereferenceable(12) %21, ptr noundef nonnull align 8 dereferenceable(32) @_ZZN2cv3hal19cvtOnePlaneBGRtoYUVEPKhmPhmiiibiiE25__cv_trace_location_fn238)
  %28 = load ptr, ptr %11, align 8
  %29 = load i64, ptr %12, align 8
  %30 = load ptr, ptr %13, align 8
  %31 = load i64, ptr %14, align 8
  %32 = load i32, ptr %15, align 4
  %33 = load i32, ptr %16, align 4
  %34 = load i32, ptr %17, align 4
  %35 = load i8, ptr %18, align 1
  %36 = trunc i8 %35 to i1
  %37 = load i32, ptr %19, align 4
  %38 = load i32, ptr %20, align 4
  %39 = invoke noundef i32 @_Z26hal_ni_cvtOnePlaneBGRtoYUVPKhmPhmiiibii(ptr noundef %28, i64 noundef %29, ptr noundef %30, i64 noundef %31, i32 noundef %32, i32 noundef %33, i32 noundef %34, i1 noundef zeroext %36, i32 noundef %37, i32 noundef %38)
          to label %40 unwind label %44

40:                                               ; preds = %10
  store i32 %39, ptr %22, align 4
  %41 = load i32, ptr %22, align 4
  %42 = icmp eq i32 %41, 0
  br i1 %42, label %43, label %48

43:                                               ; preds = %40
  store i32 1, ptr %25, align 4
  br label %74

44:                                               ; preds = %61, %51, %10
  %45 = landingpad { ptr, i32 }
          cleanup
  %46 = extractvalue { ptr, i32 } %45, 0
  store ptr %46, ptr %23, align 8
  %47 = extractvalue { ptr, i32 } %45, 1
  store i32 %47, ptr %24, align 4
  br label %75

48:                                               ; preds = %40
  %49 = load i32, ptr %22, align 4
  %50 = icmp ne i32 %49, 1
  br i1 %50, label %51, label %60

51:                                               ; preds = %48
  %52 = load i32, ptr %22, align 4
  %53 = load i32, ptr %22, align 4
  invoke void (ptr, ptr, ...) @_ZN2cv6formatB5cxx11EPKcz(ptr dead_on_unwind writable sret(%"class.std::__cxx11::basic_string") align 8 %26, ptr noundef @.str.29, i32 noundef %52, i32 noundef %53)
          to label %54 unwind label %44

54:                                               ; preds = %51
  invoke void @_ZN2cv5errorEiRKNSt7__cxx1112basic_stringIcSt11char_traitsIcESaIcEEEPKcS9_i(i32 noundef -3, ptr noundef nonnull align 8 dereferenceable(32) %26, ptr noundef @__func__._ZN2cv3hal12cpu_baseline19cvtOnePlaneBGRtoYUVEPKhmPhmiiibii, ptr noundef @.str.11, i32 noundef 240) #12
          to label %55 unwind label %56

55:                                               ; preds = %54
  unreachable

56:                                               ; preds = %54
  %57 = landingpad { ptr, i32 }
          cleanup
  %58 = extractvalue { ptr, i32 } %57, 0
  store ptr %58, ptr %23, align 8
  %59 = extractvalue { ptr, i32 } %57, 1
  store i32 %59, ptr %24, align 4
  call void @_ZNSt7__cxx1112basic_stringIcSt11char_traitsIcESaIcEED1Ev(ptr noundef nonnull align 8 dereferenceable(32) %26) #10
  br label %75

60:                                               ; preds = %48
  br label %61

61:                                               ; preds = %60
  %62 = load ptr, ptr %11, align 8
  %63 = load i64, ptr %12, align 8
  %64 = load ptr, ptr %13, align 8
  %65 = load i64, ptr %14, align 8
  %66 = load i32, ptr %15, align 4
  %67 = load i32, ptr %16, align 4
  %68 = load i32, ptr %17, align 4
  %69 = load i8, ptr %18, align 1
  %70 = trunc i8 %69 to i1
  %71 = load i32, ptr %19, align 4
  %72 = load i32, ptr %20, align 4
  invoke void @_ZN2cv3hal12cpu_baseline19cvtOnePlaneBGRtoYUVEPKhmPhmiiibii(ptr noundef %62, i64 noundef %63, ptr noundef %64, i64 noundef %65, i32 noundef %66, i32 noundef %67, i32 noundef %68, i1 noundef zeroext %70, i32 noundef %71, i32 noundef %72)
          to label %73 unwind label %44

73:                                               ; preds = %61
  store i32 1, ptr %25, align 4
  br label %74

74:                                               ; preds = %73, %43
  call void @_ZN2cv5utils5trace7details6RegionD2Ev(ptr noundef nonnull align 8 dereferenceable(12) %21) #10
  ret void

75:                                               ; preds = %56, %44
  call void @_ZN2cv5utils5trace7details6RegionD2Ev(ptr noundef nonnull align 8 dereferenceable(12) %21) #10
  br label %76

76:                                               ; preds = %75
  %77 = load ptr, ptr %23, align 8
  %78 = load i32, ptr %24, align 4
  %79 = insertvalue { ptr, i32 } poison, ptr %77, 0
  %80 = insertvalue { ptr, i32 } %79, i32 %78, 1
  resume { ptr, i32 } %80
}